target datalayout = "e-m:e-p270:32:32-p271:32:32-p272:64:64-i64:64-i128:128-f80:128-n8:16:32:64-S128"
target triple = "x86_64-unknown-linux-gnu"

%"class.std::__cxx11::basic_string" = type { %"struct.std::__cxx11::basic_string<char>::_Alloc_hider", i64, %union.anon }
%"struct.std::__cxx11::basic_string<char>::_Alloc_hider" = type { ptr }
%union.anon = type { i64, [8 x i8] }
%"class.std::__cxx11::basic_stringstream" = type { %"class.std::basic_iostream.base", %"class.std::__cxx11::basic_stringbuf", %"class.std::basic_ios" }
%"class.std::basic_iostream.base" = type { %"class.std::basic_istream.base", %"class.std::basic_ostream.base" }
%"class.std::basic_istream.base" = type { ptr, i64 }
%"class.std::basic_ostream.base" = type { ptr }
%"class.std::__cxx11::basic_stringbuf" = type { %"class.std::basic_streambuf", i32, %"class.std::__cxx11::basic_string" }
%"class.std::basic_streambuf" = type { ptr, ptr, ptr, ptr, ptr, ptr, ptr, %"class.std::locale" }
%"class.std::locale" = type { ptr }
%"class.std::basic_ios" = type { %"class.std::ios_base", ptr, i8, i8, ptr, ptr, ptr, ptr }
%"class.std::ios_base" = type { ptr, i64, i64, i32, i32, i32, ptr, %"struct.std::ios_base::_Words", [8 x %"struct.std::ios_base::_Words"], i32, ptr, %"class.std::locale" }
%"struct.std::ios_base::_Words" = type { ptr, i64 }
%"struct.std::_Setbase" = type { i32 }
%"struct.std::_Setfill" = type { i8 }
%"struct.std::_Setw" = type { i32 }

@.str.45 = private unnamed_addr constant [4 x i8] c"cvc\00", align 1
@.str.46 = private unnamed_addr constant [2 x i8] c".\00", align 1
@.str.47 = private unnamed_addr constant [9 x i8] c"() \09\0A\0C\\;\00", align 1
@.str.48 = private unnamed_addr constant [3 x i8] c"\\x\00", align 1

; Function Attrs: mustprogress nounwind uwtable
define linkonce_odr i32 @_ZSt4setwi(i32 noundef %__n) #5 comdat {
entry:
  %retval = alloca %"struct.std::_Setw", align 4
  %__n.addr = alloca i32, align 4
  store i32 %__n, ptr %__n.addr, align 4
  %_M_n = getelementptr inbounds %"struct.std::_Setw", ptr %retval, i32 0, i32 0
  %0 = load i32, ptr %__n.addr, align 4
  store i32 %0, ptr %_M_n, align 4
  %coerce.dive = getelementptr inbounds %"struct.std::_Setw", ptr %retval, i32 0, i32 0
  %1 = load i32, ptr %coerce.dive, align 4
  ret i32 %1
}

; Function Attrs: mustprogress nounwind uwtable
define linkonce_odr i8 @_ZSt7setfillIcESt8_SetfillIT_ES1_(i8 noundef signext %__c) #5 comdat {
entry:
  %retval = alloca %"struct.std::_Setfill", align 1
  %__c.addr = alloca i8, align 1
  store i8 %__c, ptr %__c.addr, align 1
  %_M_c = getelementptr inbounds %"struct.std::_Setfill", ptr %retval, i32 0, i32 0
  %0 = load i8, ptr %__c.addr, align 1
  store i8 %0, ptr %_M_c, align 1
  %coerce.dive = getelementptr inbounds %"struct.std::_Setfill", ptr %retval, i32 0, i32 0
  %1 = load i8, ptr %coerce.dive, align 1
  ret i8 %1
}

; Function Attrs: mustprogress nounwind uwtable
define linkonce_odr i32 @_ZSt7setbasei(i32 noundef %__base) #5 comdat {
entry:
  %retval = alloca %"struct.std::_Setbase", align 4
  %__base.addr = alloca i32, align 4
  store i32 %__base, ptr %__base.addr, align 4
  %_M_base = getelementptr inbounds %"struct.std::_Setbase", ptr %retval, i32 0, i32 0
  %0 = load i32, ptr %__base.addr, align 4
  store i32 %0, ptr %_M_base, align 4
  %coerce.dive = getelementptr inbounds %"struct.std::_Setbase", ptr %retval, i32 0, i32 0
  %1 = load i32, ptr %coerce.dive, align 4
  ret i32 %1
}

; Function Attrs: mustprogress uwtable
define hidden void @_ZN4cvc58internal5proof17LfscNodeConverter18getNameForUserNameERKNSt7__cxx1112basic_stringIcSt11char_traitsIcESaIcEEEm(ptr noalias sret(%"class.std::__cxx11::basic_string") align 8 %agg.result, ptr noundef nonnull align 8 dereferenceable(32) %name, i64 noundef %variant) #4 align 2 personality ptr @__gxx_personality_v0 {
entry:
  %result.ptr = alloca ptr, align 8
  %name.addr = alloca ptr, align 8
  %variant.addr = alloca i64, align 8
  %ss = alloca %"class.std::__cxx11::basic_stringstream", align 8
  %exn.slot = alloca ptr, align 8
  %ehselector.slot = alloca i32, align 4
  %nrvo = alloca i1, align 1
  %found = alloca i64, align 8
  %seq = alloca %"class.std::__cxx11::basic_stringstream", align 8
  %agg.tmp = alloca %"struct.std::_Setbase", align 4
  %agg.tmp25 = alloca %"struct.std::_Setfill", align 1
  %agg.tmp32 = alloca %"struct.std::_Setw", align 4
  %ref.tmp = alloca %"class.std::__cxx11::basic_string", align 8
  store ptr %agg.result, ptr %result.ptr, align 8
  store ptr %name, ptr %name.addr, align 8
  store i64 %variant, ptr %variant.addr, align 8
  call void @_ZNSt7__cxx1118basic_stringstreamIcSt11char_traitsIcESaIcEEC1Ev(ptr noundef nonnull align 8 dereferenceable(128) %ss)
  %add.ptr = getelementptr inbounds i8, ptr %ss, i64 16
  %call = invoke noundef nonnull align 8 dereferenceable(8) ptr @_ZStlsISt11char_traitsIcEERSt13basic_ostreamIcT_ES5_PKc(ptr noundef nonnull align 8 dereferenceable(8) %add.ptr, ptr noundef @.str.45)
          to label %invoke.cont unwind label %lpad

invoke.cont:                                      ; preds = %entry
  %0 = load i64, ptr %variant.addr, align 8
  %cmp = icmp ne i64 %0, 0
  br i1 %cmp, label %if.then, label %if.end

if.then:                                          ; preds = %invoke.cont
  %add.ptr1 = getelementptr inbounds i8, ptr %ss, i64 16
  %1 = load i64, ptr %variant.addr, align 8
  %call3 = invoke noundef nonnull align 8 dereferenceable(8) ptr @_ZNSolsEm(ptr noundef nonnull align 8 dereferenceable(8) %add.ptr1, i64 noundef %1)
          to label %invoke.cont2 unwind label %lpad

invoke.cont2:                                     ; preds = %if.then
  br label %if.end

lpad:                                             ; preds = %invoke.cont5, %if.end, %if.then, %entry
  %2 = landingpad { ptr, i32 }
          cleanup
  %3 = extractvalue { ptr, i32 } %2, 0
  store ptr %3, ptr %exn.slot, align 8
  %4 = extractvalue { ptr, i32 } %2, 1
  store i32 %4, ptr %ehselector.slot, align 4
  br label %ehcleanup50

if.end:                                           ; preds = %invoke.cont2, %invoke.cont
  %add.ptr4 = getelementptr inbounds i8, ptr %ss, i64 16
  %call6 = invoke noundef nonnull align 8 dereferenceable(8) ptr @_ZStlsISt11char_traitsIcEERSt13basic_ostreamIcT_ES5_PKc(ptr noundef nonnull align 8 dereferenceable(8) %add.ptr4, ptr noundef @.str.46)
          to label %invoke.cont5 unwind label %lpad

invoke.cont5:                                     ; preds = %if.end
  store i1 false, ptr %nrvo, align 1
  invoke void @_ZNKSt7__cxx1118basic_stringstreamIcSt11char_traitsIcESaIcEE3strEv(ptr sret(%"class.std::__cxx11::basic_string") align 8 %agg.result, ptr noundef nonnull align 8 dereferenceable(128) %ss)
          to label %invoke.cont7 unwind label %lpad

invoke.cont7:                                     ; preds = %invoke.cont5
  %call8 = call noundef i64 @_ZNKSt7__cxx1112basic_stringIcSt11char_traitsIcESaIcEE4sizeEv(ptr noundef nonnull align 8 dereferenceable(32) %agg.result) #3
  store i64 %call8, ptr %found, align 8
  %5 = load ptr, ptr %name.addr, align 8
  %call11 = invoke noundef nonnull align 8 dereferenceable(32) ptr @_ZNSt7__cxx1112basic_stringIcSt11char_traitsIcESaIcEEpLERKS4_(ptr noundef nonnull align 8 dereferenceable(32) %agg.result, ptr noundef nonnull align 8 dereferenceable(32) %5)
          to label %invoke.cont10 unwind label %lpad9

invoke.cont10:                                    ; preds = %invoke.cont7
  br label %do.body

do.body:                                          ; preds = %do.cond, %invoke.cont10
  %6 = load i64, ptr %found, align 8
  %call12 = call noundef i64 @_ZNKSt7__cxx1112basic_stringIcSt11char_traitsIcESaIcEE13find_first_ofEPKcm(ptr noundef nonnull align 8 dereferenceable(32) %agg.result, ptr noundef @.str.47, i64 noundef %6) #3
  store i64 %call12, ptr %found, align 8
  %7 = load i64, ptr %found, align 8
  %cmp13 = icmp ne i64 %7, -1
  br i1 %cmp13, label %if.then14, label %if.end47

if.then14:                                        ; preds = %do.body
  invoke void @_ZNSt7__cxx1118basic_stringstreamIcSt11char_traitsIcESaIcEEC1Ev(ptr noundef nonnull align 8 dereferenceable(128) %seq)
          to label %invoke.cont15 unwind label %lpad9

invoke.cont15:                                    ; preds = %if.then14
  %add.ptr16 = getelementptr inbounds i8, ptr %seq, i64 16
  %call19 = invoke noundef nonnull align 8 dereferenceable(8) ptr @_ZStlsISt11char_traitsIcEERSt13basic_ostreamIcT_ES5_PKc(ptr noundef nonnull align 8 dereferenceable(8) %add.ptr16, ptr noundef @.str.48)
          to label %invoke.cont18 unwind label %lpad17

invoke.cont18:                                    ; preds = %invoke.cont15
  %call21 = invoke i32 @_ZSt7setbasei(i32 noundef 16)
          to label %invoke.cont20 unwind label %lpad17

invoke.cont20:                                    ; preds = %invoke.cont18
  %coerce.dive = getelementptr inbounds %"struct.std::_Setbase", ptr %agg.tmp, i32 0, i32 0
  store i32 %call21, ptr %coerce.dive, align 4
  %coerce.dive22 = getelementptr inbounds %"struct.std::_Setbase", ptr %agg.tmp, i32 0, i32 0
  %8 = load i32, ptr %coerce.dive22, align 4
  %call24 = invoke noundef nonnull align 8 dereferenceable(8) ptr @_ZStlsIcSt11char_traitsIcEERSt13basic_ostreamIT_T0_ES6_St8_Setbase(ptr noundef nonnull align 8 dereferenceable(8) %call19, i32 %8)
          to label %invoke.cont23 unwind label %lpad17

invoke.cont23:                                    ; preds = %invoke.cont20
  %call27 = invoke i8 @_ZSt7setfillIcESt8_SetfillIT_ES1_(i8 noundef signext 48)
          to label %invoke.cont26 unwind label %lpad17

invoke.cont26:                                    ; preds = %invoke.cont23
  %coerce.dive28 = getelementptr inbounds %"struct.std::_Setfill", ptr %agg.tmp25, i32 0, i32 0
  store i8 %call27, ptr %coerce.dive28, align 1
  %coerce.dive29 = getelementptr inbounds %"struct.std::_Setfill", ptr %agg.tmp25, i32 0, i32 0
  %9 = load i8, ptr %coerce.dive29, align 1
  %call31 = invoke noundef nonnull align 8 dereferenceable(8) ptr @_ZStlsIcSt11char_traitsIcEERSt13basic_ostreamIT_T0_ES6_St8_SetfillIS3_E(ptr noundef nonnull align 8 dereferenceable(8) %call24, i8 %9)
          to label %invoke.cont30 unwind label %lpad17

invoke.cont30:                                    ; preds = %invoke.cont26
  %call34 = invoke i32 @_ZSt4setwi(i32 noundef 2)
          to label %invoke.cont33 unwind label %lpad17

invoke.cont33:                                    ; preds = %invoke.cont30
  %coerce.dive35 = getelementptr inbounds %"struct.std::_Setw", ptr %agg.tmp32, i32 0, i32 0
  store i32 %call34, ptr %coerce.dive35, align 4
  %coerce.dive36 = getelementptr inbounds %"struct.std::_Setw", ptr %agg.tmp32, i32 0, i32 0
  %10 = load i32, ptr %coerce.dive36, align 4
  %call38 = invoke noundef nonnull align 8 dereferenceable(8) ptr @_ZStlsIcSt11char_traitsIcEERSt13basic_ostreamIT_T0_ES6_St5_Setw(ptr noundef nonnull align 8 dereferenceable(8) %call31, i32 %10)
          to label %invoke.cont37 unwind label %lpad17

invoke.cont37:                                    ; preds = %invoke.cont33
  %11 = load i64, ptr %found, align 8
  %call40 = invoke noundef nonnull align 1 dereferenceable(1) ptr @_ZNSt7__cxx1112basic_stringIcSt11char_traitsIcESaIcEEixEm(ptr noundef nonnull align 8 dereferenceable(32) %agg.result, i64 noundef %11)
          to label %invoke.cont39 unwind label %lpad17

invoke.cont39:                                    ; preds = %invoke.cont37
  %12 = load i8, ptr %call40, align 1
  %conv = sext i8 %12 to i64
  %call42 = invoke noundef nonnull align 8 dereferenceable(8) ptr @_ZNSolsEm(ptr noundef nonnull align 8 dereferenceable(8) %call38, i64 noundef %conv)
          to label %invoke.cont41 unwind label %lpad17

invoke.cont41:                                    ; preds = %invoke.cont39
  %13 = load i64, ptr %found, align 8
  invoke void @_ZNKSt7__cxx1118basic_stringstreamIcSt11char_traitsIcESaIcEE3strEv(ptr sret(%"class.std::__cxx11::basic_string") align 8 %ref.tmp, ptr noundef nonnull align 8 dereferenceable(128) %seq)
          to label %invoke.cont43 unwind label %lpad17

invoke.cont43:                                    ; preds = %invoke.cont41
  %call46 = invoke noundef nonnull align 8 dereferenceable(32) ptr @_ZNSt7__cxx1112basic_stringIcSt11char_traitsIcESaIcEE7replaceEmmRKS4_(ptr noundef nonnull align 8 dereferenceable(32) %agg.result, i64 noundef %13, i64 noundef 1, ptr noundef nonnull align 8 dereferenceable(32) %ref.tmp)
          to label %invoke.cont45 unwind label %lpad44

invoke.cont45:                                    ; preds = %invoke.cont43
  call void @_ZNSt7__cxx1112basic_stringIcSt11char_traitsIcESaIcEED1Ev(ptr noundef nonnull align 8 dereferenceable(32) %ref.tmp) #3
  %14 = load i64, ptr %found, align 8
  %add = add i64 %14, 3
  store i64 %add, ptr %found, align 8
  call void @_ZNSt7__cxx1118basic_stringstreamIcSt11char_traitsIcESaIcEED1Ev(ptr noundef nonnull align 8 dereferenceable(128) %seq) #3
  br label %if.end47

lpad9:                                            ; preds = %if.then14, %invoke.cont7
  %15 = landingpad { ptr, i32 }
          cleanup
  %16 = extractvalue { ptr, i32 } %15, 0
  store ptr %16, ptr %exn.slot, align 8
  %17 = extractvalue { ptr, i32 } %15, 1
  store i32 %17, ptr %ehselector.slot, align 4
  br label %ehcleanup49

lpad17:                                           ; preds = %invoke.cont41, %invoke.cont39, %invoke.cont37, %invoke.cont33, %invoke.cont30, %invoke.cont26, %invoke.cont23, %invoke.cont20, %invoke.cont18, %invoke.cont15
  %18 = landingpad { ptr, i32 }
          cleanup
  %19 = extractvalue { ptr, i32 } %18, 0
  store ptr %19, ptr %exn.slot, align 8
  %20 = extractvalue { ptr, i32 } %18, 1
  store i32 %20, ptr %ehselector.slot, align 4
  br label %ehcleanup

lpad44:                                           ; preds = %invoke.cont43
  %21 = landingpad { ptr, i32 }
          cleanup
  %22 = extractvalue { ptr, i32 } %21, 0
  store ptr %22, ptr %exn.slot, align 8
  %23 = extractvalue { ptr, i32 } %21, 1
  store i32 %23, ptr %ehselector.slot, align 4
  call void @_ZNSt7__cxx1112basic_stringIcSt11char_traitsIcESaIcEED1Ev(ptr noundef nonnull align 8 dereferenceable(32) %ref.tmp) #3
  br label %ehcleanup

ehcleanup:                                        ; preds = %lpad44, %lpad17
  call void @_ZNSt7__cxx1118basic_stringstreamIcSt11char_traitsIcESaIcEED1Ev(ptr noundef nonnull align 8 dereferenceable(128) %seq) #3
  br label %ehcleanup49

if.end47:                                         ; preds = %invoke.cont45, %do.body
  br label %do.cond

do.cond:                                          ; preds = %if.end47
  %24 = load i64, ptr %found, align 8
  %cmp48 = icmp ne i64 %24, -1
  br i1 %cmp48, label %do.body, label %do.end, !llvm.loop !29

do.end:                                           ; preds = %do.cond
  store i1 true, ptr %nrvo, align 1
  %nrvo.val = load i1, ptr %nrvo, align 1
  br i1 %nrvo.val, label %nrvo.skipdtor, label %nrvo.unused

nrvo.unused:                                      ; preds = %do.end
  call void @_ZNSt7__cxx1112basic_stringIcSt11char_traitsIcESaIcEED1Ev(ptr noundef nonnull align 8 dereferenceable(32) %agg.result) #3
  br label %nrvo.skipdtor

nrvo.skipdtor:                                    ; preds = %nrvo.unused, %do.end
  call void @_ZNSt7__cxx1118basic_stringstreamIcSt11char_traitsIcESaIcEED1Ev(ptr noundef nonnull align 8 dereferenceable(128) %ss) #3
  ret void

ehcleanup49:                                      ; preds = %ehcleanup, %lpad9
  call void @_ZNSt7__cxx1112basic_stringIcSt11char_traitsIcESaIcEED1Ev(ptr noundef nonnull align 8 dereferenceable(32) %agg.result) #3
  br label %ehcleanup50

ehcleanup50:                                      ; preds = %ehcleanup49, %lpad
  call void @_ZNSt7__cxx1118basic_stringstreamIcSt11char_traitsIcESaIcEED1Ev(ptr noundef nonnull align 8 dereferenceable(128) %ss) #3
  br label %eh.resume

eh.resume:                                        ; preds = %ehcleanup50
  %exn = load ptr, ptr %exn.slot, align 8
  %sel = load i32, ptr %ehselector.slot, align 4
  %lpad.val = insertvalue { ptr, i32 } poison, ptr %exn, 0
  %lpad.val51 = insertvalue { ptr, i32 } %lpad.val, i32 %sel, 1
  resume { ptr, i32 } %lpad.val51
}