; Function Attrs: mustprogress uwtable
define hidden void @_ZN4cvc58internal5proof17LfscNodeConverter18getNameForUserNameERKNSt7__cxx1112basic_stringIcSt11char_traitsIcESaIcEEEm(ptr noalias sret(%"class.std::__cxx11::basic_string") align 8 %agg.result, ptr noundef nonnull align 8 dereferenceable(32) %name, i64 noundef %variant) local_unnamed_addr #3 align 2 personality ptr @__gxx_personality_v0 {
entry:
  %ss = alloca %"class.std::__cxx11::basic_stringstream", align 8
  %seq = alloca %"class.std::__cxx11::basic_stringstream", align 8
  %ref.tmp = alloca %"class.std::__cxx11::basic_string", align 8
  call void @_ZNSt7__cxx1118basic_stringstreamIcSt11char_traitsIcESaIcEEC1Ev(ptr noundef nonnull align 8 dereferenceable(128) %ss)
  %add.ptr = getelementptr inbounds i8, ptr %ss, i64 16
  %call = invoke noundef nonnull align 8 dereferenceable(8) ptr @_ZStlsISt11char_traitsIcEERSt13basic_ostreamIcT_ES5_PKc(ptr noundef nonnull align 8 dereferenceable(8) %add.ptr, ptr noundef nonnull @.str.45)
          to label %invoke.cont unwind label %lpad

invoke.cont:                                      ; preds = %entry
  %cmp.not = icmp eq i64 %variant, 0
  br i1 %cmp.not, label %if.end, label %if.then

if.then:                                          ; preds = %invoke.cont
  %call3 = invoke noundef nonnull align 8 dereferenceable(8) ptr @_ZNSolsEm(ptr noundef nonnull align 8 dereferenceable(8) %add.ptr, i64 noundef %variant)
          to label %if.end unwind label %lpad

lpad:                                             ; preds = %invoke.cont5, %if.end, %if.then, %entry
  %0 = landingpad { ptr, i32 }
          cleanup
  br label %ehcleanup50

if.end:                                           ; preds = %if.then, %invoke.cont
  %call6 = invoke noundef nonnull align 8 dereferenceable(8) ptr @_ZStlsISt11char_traitsIcEERSt13basic_ostreamIcT_ES5_PKc(ptr noundef nonnull align 8 dereferenceable(8) %add.ptr, ptr noundef nonnull @.str.46)
          to label %invoke.cont5 unwind label %lpad

invoke.cont5:                                     ; preds = %if.end
  invoke void @_ZNKSt7__cxx1118basic_stringstreamIcSt11char_traitsIcESaIcEE3strEv(ptr sret(%"class.std::__cxx11::basic_string") align 8 %agg.result, ptr noundef nonnull align 8 dereferenceable(128) %ss)
          to label %invoke.cont7 unwind label %lpad

invoke.cont7:                                     ; preds = %invoke.cont5
  %call8 = call noundef i64 @_ZNKSt7__cxx1112basic_stringIcSt11char_traitsIcESaIcEE4sizeEv(ptr noundef nonnull align 8 dereferenceable(32) %agg.result) #21
  %call11 = invoke noundef nonnull align 8 dereferenceable(32) ptr @_ZNSt7__cxx1112basic_stringIcSt11char_traitsIcESaIcEEpLERKS4_(ptr noundef nonnull align 8 dereferenceable(32) %agg.result, ptr noundef nonnull align 8 dereferenceable(32) %name)
          to label %do.body.preheader unwind label %lpad9.loopexit.split-lp

do.body.preheader:                                ; preds = %invoke.cont7
  %add.ptr16 = getelementptr inbounds i8, ptr %seq, i64 16
  br label %do.body

do.body:                                          ; preds = %do.body.preheader, %do.cond
  %found.0 = phi i64 [ %add, %do.cond ], [ %call8, %do.body.preheader ]
  %call12 = call noundef i64 @_ZNKSt7__cxx1112basic_stringIcSt11char_traitsIcESaIcEE13find_first_ofEPKcm(ptr noundef nonnull align 8 dereferenceable(32) %agg.result, ptr noundef nonnull @.str.47, i64 noundef %found.0) #21
  %cmp13.not = icmp eq i64 %call12, -1
  br i1 %cmp13.not, label %nrvo.skipdtor, label %if.then14

if.then14:                                        ; preds = %do.body
  invoke void @_ZNSt7__cxx1118basic_stringstreamIcSt11char_traitsIcESaIcEEC1Ev(ptr noundef nonnull align 8 dereferenceable(128) %seq)
          to label %invoke.cont15 unwind label %lpad9.loopexit

invoke.cont15:                                    ; preds = %if.then14
  %call19 = invoke noundef nonnull align 8 dereferenceable(8) ptr @_ZStlsISt11char_traitsIcEERSt13basic_ostreamIcT_ES5_PKc(ptr noundef nonnull align 8 dereferenceable(8) %add.ptr16, ptr noundef nonnull @.str.48)
          to label %invoke.cont18 unwind label %lpad17

invoke.cont18:                                    ; preds = %invoke.cont15
  %call24 = invoke noundef nonnull align 8 dereferenceable(8) ptr @_ZStlsIcSt11char_traitsIcEERSt13basic_ostreamIT_T0_ES6_St8_Setbase(ptr noundef nonnull align 8 dereferenceable(8) %call19, i32 16)
          to label %invoke.cont23 unwind label %lpad17

invoke.cont23:                                    ; preds = %invoke.cont18
  %call31 = invoke noundef nonnull align 8 dereferenceable(8) ptr @_ZStlsIcSt11char_traitsIcEERSt13basic_ostreamIT_T0_ES6_St8_SetfillIS3_E(ptr noundef nonnull align 8 dereferenceable(8) %call24, i8 48)
          to label %invoke.cont30 unwind label %lpad17

invoke.cont30:                                    ; preds = %invoke.cont23
  %call38 = invoke noundef nonnull align 8 dereferenceable(8) ptr @_ZStlsIcSt11char_traitsIcEERSt13basic_ostreamIT_T0_ES6_St5_Setw(ptr noundef nonnull align 8 dereferenceable(8) %call31, i32 2)
          to label %invoke.cont37 unwind label %lpad17

invoke.cont37:                                    ; preds = %invoke.cont30
  %call40 = invoke noundef nonnull align 1 dereferenceable(1) ptr @_ZNSt7__cxx1112basic_stringIcSt11char_traitsIcESaIcEEixEm(ptr noundef nonnull align 8 dereferenceable(32) %agg.result, i64 noundef %call12)
          to label %invoke.cont39 unwind label %lpad17

invoke.cont39:                                    ; preds = %invoke.cont37
  %1 = load i8, ptr %call40, align 1
  %conv = sext i8 %1 to i64
  %call42 = invoke noundef nonnull align 8 dereferenceable(8) ptr @_ZNSolsEm(ptr noundef nonnull align 8 dereferenceable(8) %call38, i64 noundef %conv)
          to label %invoke.cont41 unwind label %lpad17

invoke.cont41:                                    ; preds = %invoke.cont39
  invoke void @_ZNKSt7__cxx1118basic_stringstreamIcSt11char_traitsIcESaIcEE3strEv(ptr nonnull sret(%"class.std::__cxx11::basic_string") align 8 %ref.tmp, ptr noundef nonnull align 8 dereferenceable(128) %seq)
          to label %invoke.cont43 unwind label %lpad17

invoke.cont43:                                    ; preds = %invoke.cont41
  %call46 = invoke noundef nonnull align 8 dereferenceable(32) ptr @_ZNSt7__cxx1112basic_stringIcSt11char_traitsIcESaIcEE7replaceEmmRKS4_(ptr noundef nonnull align 8 dereferenceable(32) %agg.result, i64 noundef %call12, i64 noundef 1, ptr noundef nonnull align 8 dereferenceable(32) %ref.tmp)
          to label %do.cond unwind label %lpad44

lpad9.loopexit:                                   ; preds = %if.then14
  %lpad.loopexit = landingpad { ptr, i32 }
          cleanup
  br label %ehcleanup49

lpad9.loopexit.split-lp:                          ; preds = %invoke.cont7
  %lpad.loopexit.split-lp = landingpad { ptr, i32 }
          cleanup
  br label %ehcleanup49

lpad17:                                           ; preds = %invoke.cont41, %invoke.cont39, %invoke.cont37, %invoke.cont30, %invoke.cont23, %invoke.cont18, %invoke.cont15
  %2 = landingpad { ptr, i32 }
          cleanup
  br label %ehcleanup

lpad44:                                           ; preds = %invoke.cont43
  %3 = landingpad { ptr, i32 }
          cleanup
  call void @_ZNSt7__cxx1112basic_stringIcSt11char_traitsIcESaIcEED1Ev(ptr noundef nonnull align 8 dereferenceable(32) %ref.tmp) #21
  br label %ehcleanup

ehcleanup:                                        ; preds = %lpad44, %lpad17
  %.pn = phi { ptr, i32 } [ %3, %lpad44 ], [ %2, %lpad17 ]
  call void @_ZNSt7__cxx1118basic_stringstreamIcSt11char_traitsIcESaIcEED1Ev(ptr noundef nonnull align 8 dereferenceable(128) %seq) #21
  br label %ehcleanup49

do.cond:                                          ; preds = %invoke.cont43
  call void @_ZNSt7__cxx1112basic_stringIcSt11char_traitsIcESaIcEED1Ev(ptr noundef nonnull align 8 dereferenceable(32) %ref.tmp) #21
  %add = add i64 %call12, 3
  call void @_ZNSt7__cxx1118basic_stringstreamIcSt11char_traitsIcESaIcEED1Ev(ptr noundef nonnull align 8 dereferenceable(128) %seq) #21
  %cmp48.not = icmp eq i64 %add, -1
  br i1 %cmp48.not, label %nrvo.skipdtor, label %do.body, !llvm.loop !132

nrvo.skipdtor:                                    ; preds = %do.body, %do.cond
  call void @_ZNSt7__cxx1118basic_stringstreamIcSt11char_traitsIcESaIcEED1Ev(ptr noundef nonnull align 8 dereferenceable(128) %ss) #21
  ret void

ehcleanup49:                                      ; preds = %lpad9.loopexit, %lpad9.loopexit.split-lp, %ehcleanup
  %.pn.pn = phi { ptr, i32 } [ %.pn, %ehcleanup ], [ %lpad.loopexit, %lpad9.loopexit ], [ %lpad.loopexit.split-lp, %lpad9.loopexit.split-lp ]
  call void @_ZNSt7__cxx1112basic_stringIcSt11char_traitsIcESaIcEED1Ev(ptr noundef nonnull align 8 dereferenceable(32) %agg.result) #21
  br label %ehcleanup50

ehcleanup50:                                      ; preds = %ehcleanup49, %lpad
  %.pn.pn.pn = phi { ptr, i32 } [ %.pn.pn, %ehcleanup49 ], [ %0, %lpad ]
  call void @_ZNSt7__cxx1118basic_stringstreamIcSt11char_traitsIcESaIcEED1Ev(ptr noundef nonnull align 8 dereferenceable(128) %ss) #21
  resume { ptr, i32 } %.pn.pn.pn
}